target datalayout = "e-m:e-p270:32:32-p271:32:32-p272:64:64-i64:64-f80:128-n8:16:32:64-S128"
target triple = "x86_64-pc-linux-gnu"

@.str = private unnamed_addr constant [4 x i8] c"%d\0A\00", align 1
@.str.1 = private unnamed_addr constant [4 x i8] c"%s\0A\00", align 1
@.str.2 = private unnamed_addr constant [3 x i8] c"NO\00", align 1

; Function Attrs: noinline nounwind uwtable
define dso_local i32 @main() #0 {
  %1 = alloca i32, align 4
  %2 = alloca [500 x i8], align 16
  %3 = alloca [500 x [5 x i8]], align 16
  %4 = alloca [500 x [5 x i8]], align 16
  %5 = alloca i32, align 4
  %6 = alloca i32, align 4
  %7 = alloca i32, align 4
  %8 = alloca [500 x i32], align 16
  %9 = alloca i32, align 4
  %10 = alloca i32, align 4
  %11 = alloca i32, align 4
  store i32 0, i32* %1, align 4
  %12 = bitcast [500 x i32]* %8 to i8*
  call void @llvm.memset.p0i8.i64(i8* align 16 %12, i8 0, i64 2000, i1 false)
  %13 = call i32 (i8*, ...) @__isoc99_scanf(i8* getelementptr inbounds ([4 x i8], [4 x i8]* @.str, i64 0, i64 0), i32* %5)
  %14 = getelementptr inbounds [500 x i8], [500 x i8]* %2, i64 0, i64 0
  %15 = call i32 (i8*, ...) bitcast (i32 (...)* @gets to i32 (i8*, ...)*)(i8* %14)
  %16 = getelementptr inbounds [500 x i8], [500 x i8]* %2, i64 0, i64 0
  %17 = call i64 @strlen(i8* %16) #5
  %18 = trunc i64 %17 to i32
  store i32 %18, i32* %6, align 4
  store i32 0, i32* %7, align 4
  br label %19

19:                                               ; preds = %53, %0
  %20 = load i32, i32* %7, align 4
  %21 = load i32, i32* %6, align 4
  %22 = load i32, i32* %5, align 4
  %23 = sub nsw i32 %21, %22
  %24 = icmp sle i32 %20, %23
  br i1 %24, label %25, label %56

25:                                               ; preds = %19
  store i32 0, i32* %10, align 4
  br label %26

26:                                               ; preds = %43, %25
  %27 = load i32, i32* %10, align 4
  %28 = load i32, i32* %5, align 4
  %29 = icmp slt i32 %27, %28
  br i1 %29, label %30, label %46

30:                                               ; preds = %26
  %31 = load i32, i32* %7, align 4
  %32 = load i32, i32* %10, align 4
  %33 = add nsw i32 %31, %32
  %34 = sext i32 %33 to i64
  %35 = getelementptr inbounds [500 x i8], [500 x i8]* %2, i64 0, i64 %34
  %36 = load i8, i8* %35, align 1
  %37 = load i32, i32* %7, align 4
  %38 = sext i32 %37 to i64
  %39 = getelementptr inbounds [500 x [5 x i8]], [500 x [5 x i8]]* %3, i64 0, i64 %38
  %40 = load i32, i32* %10, align 4
  %41 = sext i32 %40 to i64
  %42 = getelementptr inbounds [5 x i8], [5 x i8]* %39, i64 0, i64 %41
  store i8 %36, i8* %42, align 1
  br label %43

43:                                               ; preds = %30
  %44 = load i32, i32* %10, align 4
  %45 = add nsw i32 %44, 1
  store i32 %45, i32* %10, align 4
  br label %26

46:                                               ; preds = %26
  %47 = load i32, i32* %7, align 4
  %48 = sext i32 %47 to i64
  %49 = getelementptr inbounds [500 x [5 x i8]], [500 x [5 x i8]]* %3, i64 0, i64 %48
  %50 = load i32, i32* %10, align 4
  %51 = sext i32 %50 to i64
  %52 = getelementptr inbounds [5 x i8], [5 x i8]* %49, i64 0, i64 %51
  store i8 0, i8* %52, align 1
  br label %53

53:                                               ; preds = %46
  %54 = load i32, i32* %7, align 4
  %55 = add nsw i32 %54, 1
  store i32 %55, i32* %7, align 4
  br label %19

56:                                               ; preds = %19
  %57 = getelementptr inbounds [500 x [5 x i8]], [500 x [5 x i8]]* %4, i64 0, i64 0
  %58 = getelementptr inbounds [5 x i8], [5 x i8]* %57, i64 0, i64 0
  %59 = getelementptr inbounds [500 x [5 x i8]], [500 x [5 x i8]]* %3, i64 0, i64 0
  %60 = getelementptr inbounds [5 x i8], [5 x i8]* %59, i64 0, i64 0
  %61 = call i8* @strcpy(i8* %58, i8* %60) #6
  store i32 1, i32* %9, align 4
  store i32 0, i32* %7, align 4
  br label %62

62:                                               ; preds = %116, %56
  %63 = load i32, i32* %7, align 4
  %64 = load i32, i32* %6, align 4
  %65 = load i32, i32* %5, align 4
  %66 = sub nsw i32 %64, %65
  %67 = icmp sle i32 %63, %66
  br i1 %67, label %68, label %119

68:                                               ; preds = %62
  store i32 0, i32* %10, align 4
  br label %69

69:                                               ; preds = %91, %68
  %70 = load i32, i32* %10, align 4
  %71 = load i32, i32* %9, align 4
  %72 = icmp slt i32 %70, %71
  br i1 %72, label %73, label %94

73:                                               ; preds = %69
  %74 = load i32, i32* %10, align 4
  %75 = sext i32 %74 to i64
  %76 = getelementptr inbounds [500 x [5 x i8]], [500 x [5 x i8]]* %4, i64 0, i64 %75
  %77 = getelementptr inbounds [5 x i8], [5 x i8]* %76, i64 0, i64 0
  %78 = load i32, i32* %7, align 4
  %79 = sext i32 %78 to i64
  %80 = getelementptr inbounds [500 x [5 x i8]], [500 x [5 x i8]]* %3, i64 0, i64 %79
  %81 = getelementptr inbounds [5 x i8], [5 x i8]* %80, i64 0, i64 0
  %82 = call i32 @strcmp(i8* %77, i8* %81) #5
  %83 = icmp eq i32 %82, 0
  br i1 %83, label %84, label %90

84:                                               ; preds = %73
  %85 = load i32, i32* %10, align 4
  %86 = sext i32 %85 to i64
  %87 = getelementptr inbounds [500 x i32], [500 x i32]* %8, i64 0, i64 %86
  %88 = load i32, i32* %87, align 4
  %89 = add nsw i32 %88, 1
  store i32 %89, i32* %87, align 4
  br label %94

90:                                               ; preds = %73
  br label %91

91:                                               ; preds = %90
  %92 = load i32, i32* %10, align 4
  %93 = add nsw i32 %92, 1
  store i32 %93, i32* %10, align 4
  br label %69

94:                                               ; preds = %84, %69
  %95 = load i32, i32* %10, align 4
  %96 = load i32, i32* %9, align 4
  %97 = icmp eq i32 %95, %96
  br i1 %97, label %98, label %115

98:                                               ; preds = %94
  %99 = load i32, i32* %10, align 4
  %100 = sext i32 %99 to i64
  %101 = getelementptr inbounds [500 x [5 x i8]], [500 x [5 x i8]]* %4, i64 0, i64 %100
  %102 = getelementptr inbounds [5 x i8], [5 x i8]* %101, i64 0, i64 0
  %103 = load i32, i32* %7, align 4
  %104 = sext i32 %103 to i64
  %105 = getelementptr inbounds [500 x [5 x i8]], [500 x [5 x i8]]* %3, i64 0, i64 %104
  %106 = getelementptr inbounds [5 x i8], [5 x i8]* %105, i64 0, i64 0
  %107 = call i8* @strcpy(i8* %102, i8* %106) #6
  %108 = load i32, i32* %10, align 4
  %109 = sext i32 %108 to i64
  %110 = getelementptr inbounds [500 x i32], [500 x i32]* %8, i64 0, i64 %109
  %111 = load i32, i32* %110, align 4
  %112 = add nsw i32 %111, 1
  store i32 %112, i32* %110, align 4
  %113 = load i32, i32* %9, align 4
  %114 = add nsw i32 %113, 1
  store i32 %114, i32* %9, align 4
  br label %115

115:                                              ; preds = %98, %94
  br label %116

116:                                              ; preds = %115
  %117 = load i32, i32* %7, align 4
  %118 = add nsw i32 %117, 1
  store i32 %118, i32* %7, align 4
  br label %62

119:                                              ; preds = %62
  %120 = getelementptr inbounds [500 x i32], [500 x i32]* %8, i64 0, i64 0
  %121 = load i32, i32* %120, align 16
  store i32 %121, i32* %11, align 4
  store i32 0, i32* %7, align 4
  br label %122

122:                                              ; preds = %139, %119
  %123 = load i32, i32* %7, align 4
  %124 = load i32, i32* %9, align 4
  %125 = icmp slt i32 %123, %124
  br i1 %125, label %126, label %142

126:                                              ; preds = %122
  %127 = load i32, i32* %7, align 4
  %128 = sext i32 %127 to i64
  %129 = getelementptr inbounds [500 x i32], [500 x i32]* %8, i64 0, i64 %128
  %130 = load i32, i32* %129, align 4
  %131 = load i32, i32* %11, align 4
  %132 = icmp sgt i32 %130, %131
  br i1 %132, label %133, label %138

133:                                              ; preds = %126
  %134 = load i32, i32* %7, align 4
  %135 = sext i32 %134 to i64
  %136 = getelementptr inbounds [500 x i32], [500 x i32]* %8, i64 0, i64 %135
  %137 = load i32, i32* %136, align 4
  store i32 %137, i32* %11, align 4
  br label %138

138:                                              ; preds = %133, %126
  br label %139

139:                                              ; preds = %138
  %140 = load i32, i32* %7, align 4
  %141 = add nsw i32 %140, 1
  store i32 %141, i32* %7, align 4
  br label %122

142:                                              ; preds = %122
  %143 = load i32, i32* %11, align 4
  %144 = icmp sgt i32 %143, 1
  br i1 %144, label %145, label %170

145:                                              ; preds = %142
  %146 = load i32, i32* %11, align 4
  %147 = call i32 (i8*, ...) @printf(i8* getelementptr inbounds ([4 x i8], [4 x i8]* @.str, i64 0, i64 0), i32 %146)
  store i32 0, i32* %7, align 4
  br label %148

148:                                              ; preds = %166, %145
  %149 = load i32, i32* %7, align 4
  %150 = load i32, i32* %9, align 4
  %151 = icmp slt i32 %149, %150
  br i1 %151, label %152, label %169

152:                                              ; preds = %148
  %153 = load i32, i32* %7, align 4
  %154 = sext i32 %153 to i64
  %155 = getelementptr inbounds [500 x i32], [500 x i32]* %8, i64 0, i64 %154
  %156 = load i32, i32* %155, align 4
  %157 = load i32, i32* %11, align 4
  %158 = icmp eq i32 %156, %157
  br i1 %158, label %159, label %165

159:                                              ; preds = %152
  %160 = load i32, i32* %7, align 4
  %161 = sext i32 %160 to i64
  %162 = getelementptr inbounds [500 x [5 x i8]], [500 x [5 x i8]]* %4, i64 0, i64 %161
  %163 = getelementptr inbounds [5 x i8], [5 x i8]* %162, i64 0, i64 0
  %164 = call i32 (i8*, ...) @printf(i8* getelementptr inbounds ([4 x i8], [4 x i8]* @.str.1, i64 0, i64 0), i8* %163)
  br label %165

165:                                              ; preds = %159, %152
  br label %166

166:                                              ; preds = %165
  %167 = load i32, i32* %7, align 4
  %168 = add nsw i32 %167, 1
  store i32 %168, i32* %7, align 4
  br label %148

169:                                              ; preds = %148
  br label %172

170:                                              ; preds = %142
  %171 = call i32 (i8*, ...) @printf(i8* getelementptr inbounds ([3 x i8], [3 x i8]* @.str.2, i64 0, i64 0))
  br label %172

172:                                              ; preds = %170, %169
  ret i32 0
}